; Function Attrs: nounwind uwtable
define ptr @l_Lean_LocalDecl_collectFVars(ptr noundef %0, ptr noundef %1, ptr readnone captures(none) %2, ptr noundef %3, ptr readnone captures(none) %4, ptr readnone captures(none) %5, ptr noundef %6) local_unnamed_addr #0 {
  %8 = ptrtoint ptr %0 to i64
  %9 = and i64 %8, 1
  %.not.i45 = icmp eq i64 %9, 0
  br i1 %.not.i45, label %13, label %10

10:                                               ; preds = %7
  %11 = lshr i64 %8, 1
  %12 = trunc i64 %11 to i32
  br label %lean_obj_tag.exit

13:                                               ; preds = %7
  %14 = getelementptr i8, ptr %0, i64 4
  %.val.i = load i32, ptr %14, align 4
  %15 = lshr i32 %.val.i, 24
  br label %lean_obj_tag.exit

lean_obj_tag.exit:                                ; preds = %10, %13
  %.0.i = phi i32 [ %12, %10 ], [ %15, %13 ]
  %16 = icmp eq i32 %.0.i, 0
  %17 = getelementptr inbounds nuw i8, ptr %0, i64 32
  %18 = load ptr, ptr %17, align 8, !tbaa !9
  %19 = ptrtoint ptr %18 to i64
  %20 = and i64 %19, 1
  %.not61 = icmp eq i64 %20, 0
  br i1 %16, label %21, label %36

21:                                               ; preds = %lean_obj_tag.exit
  br i1 %.not61, label %22, label %lean_inc.exit38

22:                                               ; preds = %21
  %.val.i46 = load i32, ptr %18, align 4, !tbaa !4
  %23 = icmp sgt i32 %.val.i46, 0
  br i1 %23, label %24, label %26, !prof !11

24:                                               ; preds = %22
  %25 = add nuw i32 %.val.i46, 1
  store i32 %25, ptr %18, align 4, !tbaa !4
  br label %lean_inc.exit38

26:                                               ; preds = %22
  %.not.i47 = icmp eq i32 %.val.i46, 0
  br i1 %.not.i47, label %lean_inc.exit38, label %27

27:                                               ; preds = %26
  tail call void @lean_inc_ref_cold(ptr noundef nonnull %18) #3
  br label %lean_inc.exit38

lean_inc.exit38:                                  ; preds = %27, %26, %24, %21
  br i1 %.not.i45, label %28, label %lean_dec.exit40

28:                                               ; preds = %lean_inc.exit38
  %29 = load i32, ptr %0, align 4, !tbaa !4
  %30 = icmp sgt i32 %29, 1
  br i1 %30, label %31, label %33, !prof !11

31:                                               ; preds = %28
  %32 = add nsw i32 %29, -1
  store i32 %32, ptr %0, align 4, !tbaa !4
  br label %lean_dec.exit40

33:                                               ; preds = %28
  %.not.i = icmp eq i32 %29, 0
  br i1 %.not.i, label %lean_dec.exit40, label %34

34:                                               ; preds = %33
  tail call void @lean_dec_ref_cold(ptr noundef nonnull %0) #3
  br label %lean_dec.exit40

lean_dec.exit40:                                  ; preds = %34, %33, %31, %lean_inc.exit38
  %35 = tail call ptr @l_Lean_Expr_collectFVars(ptr noundef %18, ptr noundef %1, ptr poison, ptr noundef %3, ptr poison, ptr poison, ptr noundef %6)
  br label %81

36:                                               ; preds = %lean_obj_tag.exit
  br i1 %.not61, label %37, label %lean_inc.exit37

37:                                               ; preds = %36
  %.val.i48 = load i32, ptr %18, align 4, !tbaa !4
  %38 = icmp sgt i32 %.val.i48, 0
  br i1 %38, label %39, label %41, !prof !11

39:                                               ; preds = %37
  %40 = add nuw i32 %.val.i48, 1
  store i32 %40, ptr %18, align 4, !tbaa !4
  br label %lean_inc.exit37

41:                                               ; preds = %37
  %.not.i49 = icmp eq i32 %.val.i48, 0
  br i1 %.not.i49, label %lean_inc.exit37, label %42

42:                                               ; preds = %41
  tail call void @lean_inc_ref_cold(ptr noundef nonnull %18) #3
  br label %lean_inc.exit37

lean_inc.exit37:                                  ; preds = %42, %41, %39, %36
  %43 = getelementptr inbounds nuw i8, ptr %0, i64 40
  %44 = load ptr, ptr %43, align 8, !tbaa !9
  %45 = ptrtoint ptr %44 to i64
  %46 = and i64 %45, 1
  %.not57 = icmp eq i64 %46, 0
  br i1 %.not57, label %47, label %lean_inc.exit36

47:                                               ; preds = %lean_inc.exit37
  %.val.i51 = load i32, ptr %44, align 4, !tbaa !4
  %48 = icmp sgt i32 %.val.i51, 0
  br i1 %48, label %49, label %51, !prof !11

49:                                               ; preds = %47
  %50 = add nuw i32 %.val.i51, 1
  store i32 %50, ptr %44, align 4, !tbaa !4
  br label %lean_inc.exit36

51:                                               ; preds = %47
  %.not.i52 = icmp eq i32 %.val.i51, 0
  br i1 %.not.i52, label %lean_inc.exit36, label %52

52:                                               ; preds = %51
  tail call void @lean_inc_ref_cold(ptr noundef nonnull %44) #3
  br label %lean_inc.exit36

lean_inc.exit36:                                  ; preds = %52, %51, %49, %lean_inc.exit37
  br i1 %.not.i45, label %53, label %lean_dec.exit39

53:                                               ; preds = %lean_inc.exit36
  %54 = load i32, ptr %0, align 4, !tbaa !4
  %55 = icmp sgt i32 %54, 1
  br i1 %55, label %56, label %58, !prof !11

56:                                               ; preds = %53
  %57 = add nsw i32 %54, -1
  store i32 %57, ptr %0, align 4, !tbaa !4
  br label %lean_dec.exit39

58:                                               ; preds = %53
  %.not.i41 = icmp eq i32 %54, 0
  br i1 %.not.i41, label %lean_dec.exit39, label %59

59:                                               ; preds = %58
  tail call void @lean_dec_ref_cold(ptr noundef nonnull %0) #3
  br label %lean_dec.exit39

lean_dec.exit39:                                  ; preds = %59, %58, %56, %lean_inc.exit36
  %60 = tail call ptr @l_Lean_Expr_collectFVars(ptr noundef %18, ptr noundef %1, ptr poison, ptr noundef %3, ptr poison, ptr poison, ptr noundef %6)
  %61 = getelementptr inbounds nuw i8, ptr %60, i64 16
  %62 = load ptr, ptr %61, align 8, !tbaa !9
  %63 = ptrtoint ptr %62 to i64
  %64 = and i64 %63, 1
  %.not59 = icmp eq i64 %64, 0
  br i1 %.not59, label %65, label %lean_inc.exit

65:                                               ; preds = %lean_dec.exit39
  %.val.i54 = load i32, ptr %62, align 4, !tbaa !4
  %66 = icmp sgt i32 %.val.i54, 0
  br i1 %66, label %67, label %69, !prof !11

67:                                               ; preds = %65
  %68 = add nuw i32 %.val.i54, 1
  store i32 %68, ptr %62, align 4, !tbaa !4
  br label %lean_inc.exit

69:                                               ; preds = %65
  %.not.i55 = icmp eq i32 %.val.i54, 0
  br i1 %.not.i55, label %lean_inc.exit, label %70

70:                                               ; preds = %69
  tail call void @lean_inc_ref_cold(ptr noundef nonnull %62) #3
  br label %lean_inc.exit

lean_inc.exit:                                    ; preds = %70, %69, %67, %lean_dec.exit39
  %71 = ptrtoint ptr %60 to i64
  %72 = and i64 %71, 1
  %.not60 = icmp eq i64 %72, 0
  br i1 %.not60, label %73, label %lean_dec.exit

73:                                               ; preds = %lean_inc.exit
  %74 = load i32, ptr %60, align 4, !tbaa !4
  %75 = icmp sgt i32 %74, 1
  br i1 %75, label %76, label %78, !prof !11

76:                                               ; preds = %73
  %77 = add nsw i32 %74, -1
  store i32 %77, ptr %60, align 4, !tbaa !4
  br label %lean_dec.exit

78:                                               ; preds = %73
  %.not.i43 = icmp eq i32 %74, 0
  br i1 %.not.i43, label %lean_dec.exit, label %79

79:                                               ; preds = %78
  tail call void @lean_dec_ref_cold(ptr noundef nonnull %60) #3
  br label %lean_dec.exit

lean_dec.exit:                                    ; preds = %79, %78, %76, %lean_inc.exit
  %80 = tail call ptr @l_Lean_Expr_collectFVars(ptr noundef %44, ptr noundef %1, ptr poison, ptr noundef %3, ptr poison, ptr poison, ptr noundef %62)
  br label %81

81:                                               ; preds = %lean_dec.exit, %lean_dec.exit40
  %.0 = phi ptr [ %35, %lean_dec.exit40 ], [ %80, %lean_dec.exit ]
  ret ptr %.0
}